target datalayout = "e-m:e-p270:32:32-p271:32:32-p272:64:64-i64:64-i128:128-f80:128-n8:16:32:64-S128"
target triple = "x86_64-pc-linux-gnu"

%class.File = type { ptr, i64, i8, i32, i8, i8, i32, i8, i8, i8, i8, i8, i64, i8, [2048 x i32], i32, ptr }

; Function Attrs: mustprogress uwtable
define void @_ZN4FileaSERS_(ptr noundef nonnull align 8 dereferenceable(8256) %0, ptr noundef nonnull align 8 dereferenceable(8256) %1) #1 align 2 {
  %3 = alloca ptr, align 8
  %4 = alloca ptr, align 8
  store ptr %0, ptr %3, align 8
  store ptr %1, ptr %4, align 8
  %5 = load ptr, ptr %3, align 8
  %6 = load ptr, ptr %4, align 8
  %7 = getelementptr inbounds %class.File, ptr %6, i32 0, i32 1
  %8 = load i64, ptr %7, align 8
  %9 = getelementptr inbounds %class.File, ptr %5, i32 0, i32 1
  store i64 %8, ptr %9, align 8
  %10 = load ptr, ptr %4, align 8
  %11 = getelementptr inbounds %class.File, ptr %10, i32 0, i32 7
  %12 = load i8, ptr %11, align 8
  %13 = trunc i8 %12 to i1
  %14 = getelementptr inbounds %class.File, ptr %5, i32 0, i32 7
  %15 = zext i1 %13 to i8
  store i8 %15, ptr %14, align 8
  %16 = load ptr, ptr %4, align 8
  %17 = getelementptr inbounds %class.File, ptr %16, i32 0, i32 2
  %18 = load i8, ptr %17, align 8
  %19 = trunc i8 %18 to i1
  %20 = getelementptr inbounds %class.File, ptr %5, i32 0, i32 2
  %21 = zext i1 %19 to i8
  store i8 %21, ptr %20, align 8
  %22 = load ptr, ptr %4, align 8
  %23 = getelementptr inbounds %class.File, ptr %22, i32 0, i32 3
  %24 = load i32, ptr %23, align 4
  %25 = getelementptr inbounds %class.File, ptr %5, i32 0, i32 3
  store i32 %24, ptr %25, align 4
  %26 = load ptr, ptr %4, align 8
  %27 = getelementptr inbounds %class.File, ptr %26, i32 0, i32 11
  %28 = load i8, ptr %27, align 4
  %29 = trunc i8 %28 to i1
  %30 = getelementptr inbounds %class.File, ptr %5, i32 0, i32 11
  %31 = zext i1 %29 to i8
  store i8 %31, ptr %30, align 4
  %32 = getelementptr inbounds %class.File, ptr %5, i32 0, i32 14
  %33 = getelementptr inbounds [2048 x i32], ptr %32, i64 0, i64 0
  %34 = load ptr, ptr %4, align 8
  %35 = getelementptr inbounds %class.File, ptr %34, i32 0, i32 14
  %36 = getelementptr inbounds [2048 x i32], ptr %35, i64 0, i64 0
  call void @_Z8wcsncpyzPwPKwm(ptr noundef %33, ptr noundef %36, i64 noundef 2048)
  %37 = load ptr, ptr %4, align 8
  %38 = getelementptr inbounds %class.File, ptr %37, i32 0, i32 5
  store i8 1, ptr %38, align 1
  ret void
}