; Function Attrs: mustprogress uwtable
define void @_ZN4FileaSERS_(ptr noundef nonnull align 8 dereferenceable(8256) %0, ptr noundef nonnull align 8 dereferenceable(8256) %1) local_unnamed_addr #2 align 2 {
  %3 = getelementptr inbounds i8, ptr %1, i64 8
  %4 = load i64, ptr %3, align 8
  %5 = getelementptr inbounds i8, ptr %0, i64 8
  store i64 %4, ptr %5, align 8
  %6 = getelementptr inbounds i8, ptr %1, i64 32
  %7 = load i8, ptr %6, align 8
  %8 = getelementptr inbounds i8, ptr %0, i64 32
  %9 = and i8 %7, 1
  store i8 %9, ptr %8, align 8
  %10 = getelementptr inbounds i8, ptr %1, i64 16
  %11 = load i8, ptr %10, align 8
  %12 = getelementptr inbounds i8, ptr %0, i64 16
  %13 = and i8 %11, 1
  store i8 %13, ptr %12, align 8
  %14 = getelementptr inbounds i8, ptr %1, i64 20
  %15 = load i32, ptr %14, align 4
  %16 = getelementptr inbounds i8, ptr %0, i64 20
  store i32 %15, ptr %16, align 4
  %17 = getelementptr inbounds i8, ptr %1, i64 36
  %18 = load i8, ptr %17, align 4
  %19 = getelementptr inbounds i8, ptr %0, i64 36
  %20 = and i8 %18, 1
  store i8 %20, ptr %19, align 4
  %21 = getelementptr inbounds i8, ptr %0, i64 52
  %22 = getelementptr inbounds i8, ptr %1, i64 52
  tail call void @_Z8wcsncpyzPwPKwm(ptr noundef nonnull %21, ptr noundef nonnull %22, i64 noundef 2048)
  %23 = getelementptr inbounds i8, ptr %1, i64 25
  store i8 1, ptr %23, align 1
  ret void
}